; Function Attrs: nounwind sspstrong uwtable
define dso_local void @tcg_gen_atomic_fetch_smin_i32_chk(ptr noundef %0, ptr noundef %1, ptr noundef %2, i64 noundef %3, i32 noundef %4, i32 noundef %5) local_unnamed_addr #0 {
  %7 = tail call align 8 ptr @llvm.threadlocal.address.p0(ptr align 8 @tcg_ctx)
  %8 = load ptr, ptr %7, align 8
  %9 = getelementptr inbounds nuw i8, ptr %8, i64 60
  %10 = load i32, ptr %9, align 4
  %11 = icmp eq i32 %5, %10
  tail call void @llvm.assume(i1 %11)
  %12 = and i32 %4, 7
  %13 = icmp samesign ult i32 %12, 3
  tail call void @llvm.assume(i1 %13)
  %14 = getelementptr inbounds nuw i8, ptr %8, i64 112
  %15 = load ptr, ptr %14, align 8
  %16 = getelementptr inbounds nuw i8, ptr %15, i64 20
  %17 = load i32, ptr %16, align 4
  %18 = and i32 %17, 32768
  %.not = icmp eq i32 %18, 0
  br i1 %.not, label %20, label %19

19:                                               ; preds = %6
  tail call fastcc void @do_atomic_op_i32(ptr noundef %0, ptr noundef %1, ptr noundef %2, i64 noundef %3, i32 noundef %4, ptr noundef nonnull @table_fetch_smin)
  br label %52

20:                                               ; preds = %6
  %21 = tail call ptr @tcg_temp_ebb_new_i32() #6
  %22 = tail call ptr @tcg_temp_ebb_new_i32() #6
  %23 = and i32 %4, 224
  %trunc.i.i.i = trunc nuw i32 %23 to i8
  switch i8 %trunc.i.i.i, label %25 [
    i8 0, label %memop_alignment_bits.exit.i.i
    i8 -32, label %24
  ]

24:                                               ; preds = %20
  br label %memop_alignment_bits.exit.i.i

25:                                               ; preds = %20
  %26 = lshr exact i32 %23, 5
  br label %memop_alignment_bits.exit.i.i

memop_alignment_bits.exit.i.i:                    ; preds = %25, %24, %20
  %.0.i.i.i = phi i32 [ %12, %24 ], [ %26, %25 ], [ 0, %20 ]
  %27 = load i8, ptr @tcg_use_softmmu, align 1, !range !4, !noundef !5
  %28 = trunc nuw i8 %27 to i1
  br i1 %28, label %29, label %check_max_alignment.exit.i.i

29:                                               ; preds = %memop_alignment_bits.exit.i.i
  %30 = add nuw nsw i32 %.0.i.i.i, 5
  %31 = load ptr, ptr %7, align 8
  %32 = getelementptr inbounds nuw i8, ptr %31, i64 68
  %33 = load i8, ptr %32, align 4
  %34 = zext i8 %33 to i32
  %35 = icmp samesign ule i32 %30, %34
  tail call void @llvm.assume(i1 %35)
  br label %check_max_alignment.exit.i.i

check_max_alignment.exit.i.i:                     ; preds = %29, %memop_alignment_bits.exit.i.i
  %36 = icmp eq i32 %.0.i.i.i, %12
  %37 = or i32 %4, 224
  %spec.select.i.i = select i1 %36, i32 %37, i32 %4
  %38 = and i32 %spec.select.i.i, 7
  switch i32 %38, label %43 [
    i32 0, label %39
    i32 1, label %do_nonatomic_op_i32.exit
    i32 2, label %41
  ]

39:                                               ; preds = %check_max_alignment.exit.i.i
  %40 = and i32 %spec.select.i.i, -17
  br label %do_nonatomic_op_i32.exit

41:                                               ; preds = %check_max_alignment.exit.i.i
  %42 = and i32 %spec.select.i.i, -9
  br label %do_nonatomic_op_i32.exit

43:                                               ; preds = %check_max_alignment.exit.i.i
  tail call void @g_assertion_message_expr(ptr noundef null, ptr noundef nonnull @.str, i32 noundef 76, ptr noundef nonnull @__func__.tcg_canonicalize_memop, ptr noundef null) #7
  unreachable

do_nonatomic_op_i32.exit:                         ; preds = %check_max_alignment.exit.i.i, %39, %41
  %.1.i.i = phi i32 [ %spec.select.i.i, %check_max_alignment.exit.i.i ], [ %40, %39 ], [ %42, %41 ]
  %44 = load ptr, ptr %7, align 8
  %45 = getelementptr inbounds nuw i8, ptr %44, i64 112
  %46 = load ptr, ptr %45, align 8
  %47 = getelementptr inbounds nuw i8, ptr %46, i64 20
  %48 = load i32, ptr %47, align 4
  %49 = and i32 %48, 32768
  %.not.i.i = icmp eq i32 %49, 0
  %50 = and i32 %.1.i.i, -1793
  %51 = or disjoint i32 %50, 1280
  %.3.i.i = select i1 %.not.i.i, i32 %51, i32 %.1.i.i
  tail call fastcc void @tcg_gen_qemu_ld_i32_int(ptr noundef %21, ptr noundef %1, i64 noundef %3, i32 noundef %.3.i.i)
  tail call void @tcg_gen_ext_i32(ptr noundef %22, ptr noundef %2, i32 noundef %.3.i.i)
  tail call void @tcg_gen_smin_i32(ptr noundef %22, ptr noundef %21, ptr noundef %22) #6
  tail call fastcc void @tcg_gen_qemu_st_i32_int(ptr noundef %22, ptr noundef %1, i64 noundef %3, i32 noundef %.3.i.i)
  tail call void @tcg_gen_ext_i32(ptr noundef %0, ptr noundef %21, i32 noundef %.3.i.i)
  tail call void @tcg_temp_free_i32(ptr noundef %21) #6
  tail call void @tcg_temp_free_i32(ptr noundef %22) #6
  br label %52

52:                                               ; preds = %do_nonatomic_op_i32.exit, %19
  ret void
}